target datalayout = "e-m:e-p270:32:32-p271:32:32-p272:64:64-i64:64-i128:128-f80:128-n8:16:32:64-S128"
target triple = "x86_64-pc-linux-gnu"

%struct.psa_key_attributes_s = type { %struct.psa_core_key_attributes_t, ptr, i64 }
%struct.psa_core_key_attributes_t = type { i16, i16, i32, i32, %struct.psa_key_policy_s, i16 }
%struct.psa_key_policy_s = type { i32, i32, i32 }

; Function Attrs: nounwind uwtable
define hidden i32 @psa_driver_wrapper_generate_key(ptr noundef %0, ptr noundef %1, i64 noundef %2, ptr noundef %3) #0 {
  %5 = alloca ptr, align 8
  %6 = alloca ptr, align 8
  %7 = alloca i64, align 8
  %8 = alloca ptr, align 8
  %9 = alloca i32, align 4
  %10 = alloca i32, align 4
  store ptr %0, ptr %5, align 8
  store ptr %1, ptr %6, align 8
  store i64 %2, ptr %7, align 8
  store ptr %3, ptr %8, align 8
  store i32 -151, ptr %9, align 4
  %11 = load ptr, ptr %5, align 8
  %12 = getelementptr inbounds %struct.psa_key_attributes_s, ptr %11, i32 0, i32 0
  %13 = getelementptr inbounds %struct.psa_core_key_attributes_t, ptr %12, i32 0, i32 2
  %14 = load i32, ptr %13, align 4
  %15 = lshr i32 %14, 8
  store i32 %15, ptr %10, align 4
  %16 = load i32, ptr %10, align 4
  switch i32 %16, label %23 [
    i32 0, label %17
  ]

17:                                               ; preds = %4
  %18 = load ptr, ptr %5, align 8
  %19 = load ptr, ptr %6, align 8
  %20 = load i64, ptr %7, align 8
  %21 = load ptr, ptr %8, align 8
  %22 = call i32 @psa_generate_key_internal(ptr noundef %18, ptr noundef %19, i64 noundef %20, ptr noundef %21)
  store i32 %22, ptr %9, align 4
  br label %24

23:                                               ; preds = %4
  store i32 -135, ptr %9, align 4
  br label %24

24:                                               ; preds = %23, %17
  %25 = load i32, ptr %9, align 4
  ret i32 %25
}