; Function Attrs: nounwind uwtable
define hidden i32 @psa_driver_wrapper_generate_key(ptr noundef %0, ptr noundef %1, i64 noundef %2, ptr noundef %3) local_unnamed_addr #1 {
  %5 = getelementptr inbounds nuw i8, ptr %0, i64 4
  %6 = load i32, ptr %5, align 4
  %cond = icmp ult i32 %6, 256
  br i1 %cond, label %7, label %9

7:                                                ; preds = %4
  %8 = tail call i32 @psa_generate_key_internal(ptr noundef nonnull %0, ptr noundef %1, i64 noundef %2, ptr noundef %3) #5
  br label %9

9:                                                ; preds = %4, %7
  %.0 = phi i32 [ %8, %7 ], [ -135, %4 ]
  ret i32 %.0
}